target datalayout = "e-m:e-p270:32:32-p271:32:32-p272:64:64-i64:64-i128:128-f80:128-n8:16:32:64-S128"
target triple = "x86_64-pc-linux-gnu"

%class.LogTagSet = type { ptr, i64, [5 x i32], [4 x i8], %class.LogOutputList, %class.LogDecorators, ptr }
%class.LogOutputList = type <{ [6 x ptr], i32, [4 x i8] }>
%class.LogDecorators = type { i32 }
%class.JfrStorage = type { ptr, ptr, ptr, ptr, ptr, ptr }

@_ZL9_instance = internal global ptr null, align 8
@.str.4 = private unnamed_addr constant [17 x i8] c"transient memory\00", align 1
@_ZN16LogTagSetMappingILN6LogTag4typeE64ELS1_0ELS1_0ELS1_0ELS1_0ELS1_0EE7_tagsetE = linkonce_odr hidden global %class.LogTagSet zeroinitializer, comdat, align 8
@.str.11 = private unnamed_addr constant [36 x i8] c"Unable to allocate %lu bytes of %s.\00", align 1

; Function Attrs: mustprogress nounwind uwtable
define linkonce_odr hidden noundef zeroext i1 @_ZNK13LogOutputList8is_levelEN8LogLevel4typeE(ptr noundef nonnull align 8 dereferenceable(52) %0, i32 noundef %1) #1 comdat align 2 {
  %3 = alloca ptr, align 8
  %4 = alloca i32, align 4
  store ptr %0, ptr %3, align 8
  store i32 %1, ptr %4, align 4
  %5 = load ptr, ptr %3, align 8
  %6 = getelementptr inbounds %class.LogOutputList, ptr %5, i32 0, i32 0
  %7 = load i32, ptr %4, align 4
  %8 = zext i32 %7 to i64
  %9 = getelementptr inbounds [6 x ptr], ptr %6, i64 0, i64 %8
  %10 = load volatile ptr, ptr %9, align 8
  %11 = icmp ne ptr %10, null
  ret i1 %11
}

; Function Attrs: mustprogress nounwind uwtable
define linkonce_odr hidden noundef zeroext i1 @_ZNK9LogTagSet8is_levelEN8LogLevel4typeE(ptr noundef nonnull align 8 dereferenceable(112) %0, i32 noundef %1) #1 comdat align 2 {
  %3 = alloca ptr, align 8
  %4 = alloca i32, align 4
  store ptr %0, ptr %3, align 8
  store i32 %1, ptr %4, align 4
  %5 = load ptr, ptr %3, align 8
  %6 = getelementptr inbounds %class.LogTagSet, ptr %5, i32 0, i32 4
  %7 = load i32, ptr %4, align 4
  %8 = call noundef zeroext i1 @_ZNK13LogOutputList8is_levelEN8LogLevel4typeE(ptr noundef nonnull align 8 dereferenceable(52) %6, i32 noundef %7)
  ret i1 %8
}

; Function Attrs: mustprogress nounwind uwtable
define linkonce_odr hidden noundef nonnull align 8 dereferenceable(112) ptr @_ZN16LogTagSetMappingILN6LogTag4typeE64ELS1_0ELS1_0ELS1_0ELS1_0ELS1_0EE6tagsetEv() #1 comdat align 2 {
  ret ptr @_ZN16LogTagSetMappingILN6LogTag4typeE64ELS1_0ELS1_0ELS1_0ELS1_0ELS1_0EE7_tagsetE
}

; Function Attrs: mustprogress nounwind uwtable
define linkonce_odr hidden noundef zeroext i1 @_ZN7LogImplILN6LogTag4typeE64ELS1_0ELS1_0ELS1_0ELS1_0ELS1_0EE8is_levelEN8LogLevel4typeE(i32 noundef %0) #1 comdat align 2 {
  %2 = alloca i32, align 4
  store i32 %0, ptr %2, align 4
  %3 = call noundef nonnull align 8 dereferenceable(112) ptr @_ZN16LogTagSetMappingILN6LogTag4typeE64ELS1_0ELS1_0ELS1_0ELS1_0ELS1_0EE6tagsetEv()
  %4 = load i32, ptr %2, align 4
  %5 = call noundef zeroext i1 @_ZNK9LogTagSet8is_levelEN8LogLevel4typeE(ptr noundef nonnull align 8 dereferenceable(112) %3, i32 noundef %4)
  ret i1 %5
}

; Function Attrs: mustprogress nounwind uwtable
define internal void @_ZL22log_allocation_failurePKcm(ptr noundef %0, i64 noundef %1) #1 {
  %3 = alloca ptr, align 8
  %4 = alloca i64, align 8
  store ptr %0, ptr %3, align 8
  store i64 %1, ptr %4, align 8
  %5 = call noundef zeroext i1 @_ZN7LogImplILN6LogTag4typeE64ELS1_0ELS1_0ELS1_0ELS1_0ELS1_0EE8is_levelEN8LogLevel4typeE(i32 noundef 4)
  br i1 %5, label %7, label %6

6:                                                ; preds = %2
  br label %10

7:                                                ; preds = %2
  %8 = load i64, ptr %4, align 8
  %9 = load ptr, ptr %3, align 8
  call void (ptr, ...) @_ZN7LogImplILN6LogTag4typeE64ELS1_0ELS1_0ELS1_0ELS1_0ELS1_0EE5writeILN8LogLevel4typeE4EEEvPKcz(ptr noundef @.str.11, i64 noundef %8, ptr noundef %9)
  br label %10

10:                                               ; preds = %7, %6
  ret void
}

; Function Attrs: mustprogress nounwind uwtable
define hidden noundef nonnull align 8 dereferenceable(48) ptr @_ZN10JfrStorage8instanceEv() #1 align 2 {
  %1 = load ptr, ptr @_ZL9_instance, align 8
  ret ptr %1
}

; Function Attrs: mustprogress nounwind uwtable
define hidden noundef ptr @_ZN10JfrStorage17acquire_transientEmP6Thread(ptr noundef nonnull align 8 dereferenceable(48) %0, i64 noundef %1, ptr noundef %2) #1 align 2 {
  %4 = alloca ptr, align 8
  %5 = alloca ptr, align 8
  %6 = alloca i64, align 8
  %7 = alloca ptr, align 8
  %8 = alloca ptr, align 8
  store ptr %0, ptr %5, align 8
  store i64 %1, ptr %6, align 8
  store ptr %2, ptr %7, align 8
  %9 = load i64, ptr %6, align 8
  %10 = call noundef nonnull align 8 dereferenceable(48) ptr @_ZN10JfrStorage8instanceEv()
  %11 = getelementptr inbounds %class.JfrStorage, ptr %10, i32 0, i32 2
  %12 = load ptr, ptr %11, align 8
  %13 = load ptr, ptr %7, align 8
  %14 = call noundef ptr @_Z31mspace_allocate_transient_leaseI14JfrMemorySpaceI10JfrStorage24JfrMspaceRemoveRetrieval18JfrConcurrentQueueI9JfrBuffer11JfrCHeapObjE13JfrLinkedListIS4_S5_ELb0EEENT_7NodePtrEmPSA_P6Thread(i64 noundef %9, ptr noundef %12, ptr noundef %13)
  store ptr %14, ptr %8, align 8
  %15 = load ptr, ptr %8, align 8
  %16 = icmp eq ptr %15, null
  br i1 %16, label %17, label %19

17:                                               ; preds = %3
  %18 = load i64, ptr %6, align 8
  call void @_ZL22log_allocation_failurePKcm(ptr noundef @.str.4, i64 noundef %18)
  store ptr null, ptr %4, align 8
  br label %21

19:                                               ; preds = %3
  %20 = load ptr, ptr %8, align 8
  store ptr %20, ptr %4, align 8
  br label %21

21:                                               ; preds = %19, %17
  %22 = load ptr, ptr %4, align 8
  ret ptr %22
}