; Function Attrs: mustprogress nounwind uwtable
define hidden noundef ptr @_ZN10JfrStorage17acquire_transientEmP6Thread(ptr nocapture noundef nonnull readnone align 8 dereferenceable(48) %0, i64 noundef %1, ptr noundef %2) local_unnamed_addr #1 align 2 {
  %4 = load ptr, ptr @_ZL9_instance, align 8
  %5 = getelementptr inbounds i8, ptr %4, i64 16
  %6 = load ptr, ptr %5, align 8
  %7 = tail call noundef ptr @_Z31mspace_allocate_transient_leaseI14JfrMemorySpaceI10JfrStorage24JfrMspaceRemoveRetrieval18JfrConcurrentQueueI9JfrBuffer11JfrCHeapObjE13JfrLinkedListIS4_S5_ELb0EEENT_7NodePtrEmPSA_P6Thread(i64 noundef %1, ptr noundef %6, ptr noundef %2)
  %8 = icmp eq ptr %7, null
  br i1 %8, label %9, label %_ZL22log_allocation_failurePKcm.exit

9:                                                ; preds = %3
  %10 = load volatile ptr, ptr getelementptr inbounds (i8, ptr @_ZN16LogTagSetMappingILN6LogTag4typeE64ELS1_0ELS1_0ELS1_0ELS1_0ELS1_0EE7_tagsetE, i64 72), align 8
  %.not.i = icmp eq ptr %10, null
  br i1 %.not.i, label %_ZL22log_allocation_failurePKcm.exit, label %11

11:                                               ; preds = %9
  tail call void (ptr, ...) @_ZN7LogImplILN6LogTag4typeE64ELS1_0ELS1_0ELS1_0ELS1_0ELS1_0EE5writeILN8LogLevel4typeE4EEEvPKcz(ptr noundef nonnull @.str.11, i64 noundef %1, ptr noundef nonnull @.str.4)
  br label %_ZL22log_allocation_failurePKcm.exit

_ZL22log_allocation_failurePKcm.exit:             ; preds = %11, %9, %3
  ret ptr %7
}